target datalayout = "e-m:e-p270:32:32-p271:32:32-p272:64:64-i64:64-i128:128-f80:128-n8:16:32:64-S128"
target triple = "x86_64-pc-linux-gnu"

%struct.ossl_param_st = type { ptr, i32, ptr, i64, i64 }

@libctx = internal global ptr null, align 8
@__const.test_skey_cipher.import_key = private unnamed_addr constant [16 x i8] c"SKEYSKEYSKEYSKEY", align 16
@.str.3 = private unnamed_addr constant [32 x i8] c"../openssl/test/evp_skey_test.c\00", align 1
@.str.4 = private unnamed_addr constant [38 x i8] c"fake_prov = fake_cipher_start(libctx)\00", align 1
@.str.5 = private unnamed_addr constant [12 x i8] c"fake_cipher\00", align 1
@.str.6 = private unnamed_addr constant [21 x i8] c"provider=fake-cipher\00", align 1
@.str.7 = private unnamed_addr constant [9 x i8] c"key_name\00", align 1
@.str.8 = private unnamed_addr constant [14 x i8] c"fake key name\00", align 1
@.str.9 = private unnamed_addr constant [10 x i8] c"raw-bytes\00", align 1
@.str.10 = private unnamed_addr constant [4 x i8] c"key\00", align 1
@.str.11 = private unnamed_addr constant [27 x i8] c"ctx = EVP_CIPHER_CTX_new()\00", align 1
@.str.12 = private unnamed_addr constant [61 x i8] c"EVP_CipherInit_SKEY(ctx, fake_cipher, key, NULL, 0, 1, NULL)\00", align 1
@.str.13 = private unnamed_addr constant [2 x i8] c"0\00", align 1
@.str.14 = private unnamed_addr constant [91 x i8] c"EVP_SKEY_export(key, OSSL_SKEYMGMT_SELECT_SECRET_KEY, ossl_pkey_todata_cb, &export_params)\00", align 1
@.str.15 = private unnamed_addr constant [48 x i8] c"EVP_SKEY_get_raw_key(key, &export, &export_len)\00", align 1
@.str.16 = private unnamed_addr constant [7 x i8] c"export\00", align 1
@.str.17 = private unnamed_addr constant [11 x i8] c"import_key\00", align 1

; Function Attrs: nounwind uwtable
define internal i32 @test_skey_cipher() #0 {
  %1 = alloca i32, align 4
  %2 = alloca i32, align 4
  %3 = alloca ptr, align 8
  %4 = alloca ptr, align 8
  %5 = alloca ptr, align 8
  %6 = alloca ptr, align 8
  %7 = alloca [16 x i8], align 16
  %8 = alloca [3 x %struct.ossl_param_st], align 16
  %9 = alloca ptr, align 8
  %10 = alloca ptr, align 8
  %11 = alloca i64, align 8
  %12 = alloca i32, align 4
  %13 = alloca %struct.ossl_param_st, align 8
  %14 = alloca %struct.ossl_param_st, align 8
  %15 = alloca %struct.ossl_param_st, align 8
  call void @llvm.lifetime.start.p0(i64 4, ptr %2) #5
  store i32 0, ptr %2, align 4, !tbaa !9
  call void @llvm.lifetime.start.p0(i64 8, ptr %3) #5
  store ptr null, ptr %3, align 8, !tbaa !11
  call void @llvm.lifetime.start.p0(i64 8, ptr %4) #5
  store ptr null, ptr %4, align 8, !tbaa !13
  call void @llvm.lifetime.start.p0(i64 8, ptr %5) #5
  store ptr null, ptr %5, align 8, !tbaa !15
  call void @llvm.lifetime.start.p0(i64 8, ptr %6) #5
  store ptr null, ptr %6, align 8, !tbaa !17
  call void @llvm.lifetime.start.p0(i64 16, ptr %7) #5
  call void @llvm.memcpy.p0.p0.i64(ptr align 16 %7, ptr align 16 @__const.test_skey_cipher.import_key, i64 16, i1 false)
  call void @llvm.lifetime.start.p0(i64 120, ptr %8) #5
  call void @llvm.lifetime.start.p0(i64 8, ptr %9) #5
  store ptr null, ptr %9, align 8, !tbaa !19
  call void @llvm.lifetime.start.p0(i64 8, ptr %10) #5
  call void @llvm.lifetime.start.p0(i64 8, ptr %11) #5
  %16 = load ptr, ptr @libctx, align 8, !tbaa !4
  %17 = call ptr @fake_cipher_start(ptr noundef %16)
  store ptr %17, ptr %3, align 8, !tbaa !11
  %18 = call i32 @test_ptr(ptr noundef @.str.3, i32 noundef 49, ptr noundef @.str.4, ptr noundef %17)
  %19 = icmp ne i32 %18, 0
  br i1 %19, label %21, label %20

20:                                               ; preds = %0
  store i32 0, ptr %1, align 4
  store i32 1, ptr %12, align 4
  br label %78

21:                                               ; preds = %0
  %22 = load ptr, ptr @libctx, align 8, !tbaa !4
  %23 = call ptr @EVP_CIPHER_fetch(ptr noundef %22, ptr noundef @.str.5, ptr noundef @.str.6)
  store ptr %23, ptr %5, align 8, !tbaa !15
  %24 = load ptr, ptr %5, align 8, !tbaa !15
  %25 = call i32 @test_ptr(ptr noundef @.str.3, i32 noundef 54, ptr noundef @.str.5, ptr noundef %24)
  %26 = icmp ne i32 %25, 0
  br i1 %26, label %28, label %27

27:                                               ; preds = %21
  br label %71

28:                                               ; preds = %21
  %29 = getelementptr inbounds [3 x %struct.ossl_param_st], ptr %8, i64 0, i64 0
  call void @llvm.lifetime.start.p0(i64 40, ptr %13) #5
  call void @OSSL_PARAM_construct_utf8_string(ptr dead_on_unwind writable sret(%struct.ossl_param_st) align 8 %13, ptr noundef @.str.7, ptr noundef @.str.8, i64 noundef 0)
  call void @llvm.memcpy.p0.p0.i64(ptr align 16 %29, ptr align 8 %13, i64 40, i1 false), !tbaa.struct !21
  call void @llvm.lifetime.end.p0(i64 40, ptr %13) #5
  %30 = getelementptr inbounds [3 x %struct.ossl_param_st], ptr %8, i64 0, i64 1
  call void @llvm.lifetime.start.p0(i64 40, ptr %14) #5
  %31 = getelementptr inbounds [16 x i8], ptr %7, i64 0, i64 0
  call void @OSSL_PARAM_construct_octet_string(ptr dead_on_unwind writable sret(%struct.ossl_param_st) align 8 %14, ptr noundef @.str.9, ptr noundef %31, i64 noundef 16)
  call void @llvm.memcpy.p0.p0.i64(ptr align 8 %30, ptr align 8 %14, i64 40, i1 false), !tbaa.struct !21
  call void @llvm.lifetime.end.p0(i64 40, ptr %14) #5
  %32 = getelementptr inbounds [3 x %struct.ossl_param_st], ptr %8, i64 0, i64 2
  call void @llvm.lifetime.start.p0(i64 40, ptr %15) #5
  call void @OSSL_PARAM_construct_end(ptr dead_on_unwind writable sret(%struct.ossl_param_st) align 8 %15)
  call void @llvm.memcpy.p0.p0.i64(ptr align 16 %32, ptr align 8 %15, i64 40, i1 false), !tbaa.struct !21
  call void @llvm.lifetime.end.p0(i64 40, ptr %15) #5
  %33 = load ptr, ptr @libctx, align 8, !tbaa !4
  %34 = getelementptr inbounds [3 x %struct.ossl_param_st], ptr %8, i64 0, i64 0
  %35 = call ptr @EVP_SKEY_import(ptr noundef %33, ptr noundef @.str.5, ptr noundef @.str.6, i32 noundef 3, ptr noundef %34)
  store ptr %35, ptr %4, align 8, !tbaa !13
  %36 = load ptr, ptr %4, align 8, !tbaa !13
  %37 = call i32 @test_ptr(ptr noundef @.str.3, i32 noundef 65, ptr noundef @.str.10, ptr noundef %36)
  %38 = icmp ne i32 %37, 0
  br i1 %38, label %40, label %39

39:                                               ; preds = %28
  br label %71

40:                                               ; preds = %28
  %41 = call ptr @EVP_CIPHER_CTX_new()
  store ptr %41, ptr %6, align 8, !tbaa !17
  %42 = call i32 @test_ptr(ptr noundef @.str.3, i32 noundef 69, ptr noundef @.str.11, ptr noundef %41)
  %43 = icmp ne i32 %42, 0
  br i1 %43, label %44, label %51

44:                                               ; preds = %40
  %45 = load ptr, ptr %6, align 8, !tbaa !17
  %46 = load ptr, ptr %5, align 8, !tbaa !15
  %47 = load ptr, ptr %4, align 8, !tbaa !13
  %48 = call i32 @EVP_CipherInit_SKEY(ptr noundef %45, ptr noundef %46, ptr noundef %47, ptr noundef null, i64 noundef 0, i32 noundef 1, ptr noundef null)
  %49 = call i32 @test_int_gt(ptr noundef @.str.3, i32 noundef 70, ptr noundef @.str.12, ptr noundef @.str.13, i32 noundef %48, i32 noundef 0)
  %50 = icmp ne i32 %49, 0
  br i1 %50, label %52, label %51

51:                                               ; preds = %44, %40
  br label %71

52:                                               ; preds = %44
  %53 = load ptr, ptr %4, align 8, !tbaa !13
  %54 = call i32 @EVP_SKEY_export(ptr noundef %53, i32 noundef 2, ptr noundef @ossl_pkey_todata_cb, ptr noundef %9)
  %55 = call i32 @test_int_gt(ptr noundef @.str.3, i32 noundef 75, ptr noundef @.str.14, ptr noundef @.str.13, i32 noundef %54, i32 noundef 0)
  %56 = icmp ne i32 %55, 0
  br i1 %56, label %58, label %57

57:                                               ; preds = %52
  br label %71

58:                                               ; preds = %52
  %59 = load ptr, ptr %4, align 8, !tbaa !13
  %60 = call i32 @EVP_SKEY_get_raw_key(ptr noundef %59, ptr noundef %10, ptr noundef %11)
  %61 = call i32 @test_int_gt(ptr noundef @.str.3, i32 noundef 79, ptr noundef @.str.15, ptr noundef @.str.13, i32 noundef %60, i32 noundef 0)
  %62 = icmp ne i32 %61, 0
  br i1 %62, label %63, label %69

63:                                               ; preds = %58
  %64 = load ptr, ptr %10, align 8, !tbaa !22
  %65 = load i64, ptr %11, align 8, !tbaa !25
  %66 = getelementptr inbounds [16 x i8], ptr %7, i64 0, i64 0
  %67 = call i32 @test_mem_eq(ptr noundef @.str.3, i32 noundef 80, ptr noundef @.str.16, ptr noundef @.str.17, ptr noundef %64, i64 noundef %65, ptr noundef %66, i64 noundef 16)
  %68 = icmp ne i32 %67, 0
  br i1 %68, label %70, label %69

69:                                               ; preds = %63, %58
  br label %71

70:                                               ; preds = %63
  store i32 1, ptr %2, align 4, !tbaa !9
  br label %71

71:                                               ; preds = %70, %69, %57, %51, %39, %27
  %72 = load ptr, ptr %9, align 8, !tbaa !19
  call void @OSSL_PARAM_free(ptr noundef %72)
  %73 = load ptr, ptr %4, align 8, !tbaa !13
  call void @EVP_SKEY_free(ptr noundef %73)
  %74 = load ptr, ptr %5, align 8, !tbaa !15
  call void @EVP_CIPHER_free(ptr noundef %74)
  %75 = load ptr, ptr %6, align 8, !tbaa !17
  call void @EVP_CIPHER_CTX_free(ptr noundef %75)
  %76 = load ptr, ptr %3, align 8, !tbaa !11
  call void @fake_cipher_finish(ptr noundef %76)
  %77 = load i32, ptr %2, align 4, !tbaa !9
  store i32 %77, ptr %1, align 4
  store i32 1, ptr %12, align 4
  br label %78

78:                                               ; preds = %71, %20
  call void @llvm.lifetime.end.p0(i64 8, ptr %11) #5
  call void @llvm.lifetime.end.p0(i64 8, ptr %10) #5
  call void @llvm.lifetime.end.p0(i64 8, ptr %9) #5
  call void @llvm.lifetime.end.p0(i64 120, ptr %8) #5
  call void @llvm.lifetime.end.p0(i64 16, ptr %7) #5
  call void @llvm.lifetime.end.p0(i64 8, ptr %6) #5
  call void @llvm.lifetime.end.p0(i64 8, ptr %5) #5
  call void @llvm.lifetime.end.p0(i64 8, ptr %4) #5
  call void @llvm.lifetime.end.p0(i64 8, ptr %3) #5
  call void @llvm.lifetime.end.p0(i64 4, ptr %2) #5
  %79 = load i32, ptr %1, align 4
  ret i32 %79
}