; Function Attrs: nounwind uwtable
define internal range(i32 0, 2) i32 @test_skey_cipher() #0 {
  %1 = alloca [16 x i8], align 16
  %2 = alloca [3 x %struct.ossl_param_st], align 16
  %3 = alloca ptr, align 8
  %4 = alloca ptr, align 8
  %5 = alloca i64, align 8
  %6 = alloca %struct.ossl_param_st, align 8
  %7 = alloca %struct.ossl_param_st, align 8
  call void @llvm.lifetime.start.p0(i64 16, ptr nonnull %1) #5
  call void @llvm.memcpy.p0.p0.i64(ptr noundef nonnull align 16 dereferenceable(16) %1, ptr noundef nonnull align 16 dereferenceable(16) @__const.test_skey_cipher.import_key, i64 16, i1 false)
  call void @llvm.lifetime.start.p0(i64 120, ptr nonnull %2) #5
  call void @llvm.lifetime.start.p0(i64 8, ptr nonnull %3) #5
  store ptr null, ptr %3, align 8, !tbaa !9
  call void @llvm.lifetime.start.p0(i64 8, ptr nonnull %4) #5
  call void @llvm.lifetime.start.p0(i64 8, ptr nonnull %5) #5
  %8 = load ptr, ptr @libctx, align 8, !tbaa !4
  %9 = tail call ptr @fake_cipher_start(ptr noundef %8) #5
  %10 = tail call i32 @test_ptr(ptr noundef nonnull @.str.3, i32 noundef 49, ptr noundef nonnull @.str.4, ptr noundef %9) #5
  %.not = icmp eq i32 %10, 0
  br i1 %.not, label %39, label %11

11:                                               ; preds = %0
  %12 = load ptr, ptr @libctx, align 8, !tbaa !4
  %13 = tail call ptr @EVP_CIPHER_fetch(ptr noundef %12, ptr noundef nonnull @.str.5, ptr noundef nonnull @.str.6) #5
  %14 = tail call i32 @test_ptr(ptr noundef nonnull @.str.3, i32 noundef 54, ptr noundef nonnull @.str.5, ptr noundef %13) #5
  %.not15 = icmp eq i32 %14, 0
  br i1 %.not15, label %37, label %15

15:                                               ; preds = %11
  call void @OSSL_PARAM_construct_utf8_string(ptr dead_on_unwind nonnull writable sret(%struct.ossl_param_st) align 8 %2, ptr noundef nonnull @.str.7, ptr noundef nonnull @.str.8, i64 noundef 0) #5
  %16 = getelementptr inbounds nuw i8, ptr %2, i64 40
  call void @llvm.lifetime.start.p0(i64 40, ptr nonnull %6) #5
  call void @OSSL_PARAM_construct_octet_string(ptr dead_on_unwind nonnull writable sret(%struct.ossl_param_st) align 8 %6, ptr noundef nonnull @.str.9, ptr noundef nonnull %1, i64 noundef 16) #5
  call void @llvm.memcpy.p0.p0.i64(ptr noundef nonnull align 8 dereferenceable(40) %16, ptr noundef nonnull align 8 dereferenceable(40) %6, i64 40, i1 false), !tbaa.struct !11
  call void @llvm.lifetime.end.p0(i64 40, ptr nonnull %6) #5
  %17 = getelementptr inbounds nuw i8, ptr %2, i64 80
  call void @llvm.lifetime.start.p0(i64 40, ptr nonnull %7) #5
  call void @OSSL_PARAM_construct_end(ptr dead_on_unwind nonnull writable sret(%struct.ossl_param_st) align 8 %7) #5
  call void @llvm.memcpy.p0.p0.i64(ptr noundef nonnull align 16 dereferenceable(40) %17, ptr noundef nonnull align 8 dereferenceable(40) %7, i64 40, i1 false), !tbaa.struct !11
  call void @llvm.lifetime.end.p0(i64 40, ptr nonnull %7) #5
  %18 = load ptr, ptr @libctx, align 8, !tbaa !4
  %19 = call ptr @EVP_SKEY_import(ptr noundef %18, ptr noundef nonnull @.str.5, ptr noundef nonnull @.str.6, i32 noundef 3, ptr noundef nonnull %2) #5
  %20 = call i32 @test_ptr(ptr noundef nonnull @.str.3, i32 noundef 65, ptr noundef nonnull @.str.10, ptr noundef %19) #5
  %.not16 = icmp eq i32 %20, 0
  br i1 %.not16, label %37, label %21

21:                                               ; preds = %15
  %22 = call ptr @EVP_CIPHER_CTX_new() #5
  %23 = call i32 @test_ptr(ptr noundef nonnull @.str.3, i32 noundef 69, ptr noundef nonnull @.str.11, ptr noundef %22) #5
  %.not17 = icmp eq i32 %23, 0
  br i1 %.not17, label %37, label %24

24:                                               ; preds = %21
  %25 = call i32 @EVP_CipherInit_SKEY(ptr noundef %22, ptr noundef %13, ptr noundef %19, ptr noundef null, i64 noundef 0, i32 noundef 1, ptr noundef null) #5
  %26 = call i32 @test_int_gt(ptr noundef nonnull @.str.3, i32 noundef 70, ptr noundef nonnull @.str.12, ptr noundef nonnull @.str.13, i32 noundef %25, i32 noundef 0) #5
  %.not18 = icmp eq i32 %26, 0
  br i1 %.not18, label %37, label %27

27:                                               ; preds = %24
  %28 = call i32 @EVP_SKEY_export(ptr noundef %19, i32 noundef 2, ptr noundef nonnull @ossl_pkey_todata_cb, ptr noundef nonnull %3) #5
  %29 = call i32 @test_int_gt(ptr noundef nonnull @.str.3, i32 noundef 75, ptr noundef nonnull @.str.14, ptr noundef nonnull @.str.13, i32 noundef %28, i32 noundef 0) #5
  %.not19 = icmp eq i32 %29, 0
  br i1 %.not19, label %37, label %30

30:                                               ; preds = %27
  %31 = call i32 @EVP_SKEY_get_raw_key(ptr noundef %19, ptr noundef nonnull %4, ptr noundef nonnull %5) #5
  %32 = call i32 @test_int_gt(ptr noundef nonnull @.str.3, i32 noundef 79, ptr noundef nonnull @.str.15, ptr noundef nonnull @.str.13, i32 noundef %31, i32 noundef 0) #5
  %.not20 = icmp eq i32 %32, 0
  br i1 %.not20, label %37, label %33

33:                                               ; preds = %30
  %34 = load ptr, ptr %4, align 8, !tbaa !12
  %35 = load i64, ptr %5, align 8, !tbaa !17
  %36 = call i32 @test_mem_eq(ptr noundef nonnull @.str.3, i32 noundef 80, ptr noundef nonnull @.str.16, ptr noundef nonnull @.str.17, ptr noundef %34, i64 noundef %35, ptr noundef nonnull %1, i64 noundef 16) #5
  %.not21 = icmp ne i32 %36, 0
  %spec.select = zext i1 %.not21 to i32
  br label %37

37:                                               ; preds = %33, %30, %27, %21, %24, %15, %11
  %.013 = phi i32 [ 0, %30 ], [ 0, %27 ], [ 0, %24 ], [ 0, %21 ], [ 0, %15 ], [ 0, %11 ], [ %spec.select, %33 ]
  %.012 = phi ptr [ %19, %30 ], [ %19, %27 ], [ %19, %24 ], [ %19, %21 ], [ %19, %15 ], [ null, %11 ], [ %19, %33 ]
  %.0 = phi ptr [ %22, %30 ], [ %22, %27 ], [ %22, %24 ], [ %22, %21 ], [ null, %15 ], [ null, %11 ], [ %22, %33 ]
  %38 = load ptr, ptr %3, align 8, !tbaa !9
  call void @OSSL_PARAM_free(ptr noundef %38) #5
  call void @EVP_SKEY_free(ptr noundef %.012) #5
  call void @EVP_CIPHER_free(ptr noundef %13) #5
  call void @EVP_CIPHER_CTX_free(ptr noundef %.0) #5
  call void @fake_cipher_finish(ptr noundef %9) #5
  br label %39

39:                                               ; preds = %0, %37
  %.014 = phi i32 [ %.013, %37 ], [ 0, %0 ]
  call void @llvm.lifetime.end.p0(i64 8, ptr nonnull %5) #5
  call void @llvm.lifetime.end.p0(i64 8, ptr nonnull %4) #5
  call void @llvm.lifetime.end.p0(i64 8, ptr nonnull %3) #5
  call void @llvm.lifetime.end.p0(i64 120, ptr nonnull %2) #5
  call void @llvm.lifetime.end.p0(i64 16, ptr nonnull %1) #5
  ret i32 %.014
}